target datalayout = "e-m:e-p270:32:32-p271:32:32-p272:64:64-i64:64-i128:128-f80:128-n8:16:32:64-S128"
target triple = "x86_64-pc-linux-gnu"

; Function Attrs: nounwind uwtable
define hidden i32 @uv__cloexec(i32 noundef %0, i32 noundef %1) #0 {
  %3 = alloca i32, align 4
  %4 = alloca i32, align 4
  %5 = alloca i32, align 4
  %6 = alloca i32, align 4
  %7 = alloca i32, align 4
  %8 = alloca i32, align 4
  store i32 %0, ptr %4, align 4
  store i32 %1, ptr %5, align 4
  call void @llvm.lifetime.start.p0(i64 4, ptr %6) #11
  call void @llvm.lifetime.start.p0(i64 4, ptr %7) #11
  store i32 0, ptr %6, align 4
  %9 = load i32, ptr %5, align 4
  %10 = icmp ne i32 %9, 0
  br i1 %10, label %11, label %12

11:                                               ; preds = %2
  store i32 1, ptr %6, align 4
  br label %12

12:                                               ; preds = %11, %2
  br label %13

13:                                               ; preds = %24, %12
  %14 = load i32, ptr %4, align 4
  %15 = load i32, ptr %6, align 4
  %16 = call i32 (i32, i32, ...) @fcntl64(i32 noundef %14, i32 noundef 2, i32 noundef %15)
  store i32 %16, ptr %7, align 4
  br label %17

17:                                               ; preds = %13
  %18 = load i32, ptr %7, align 4
  %19 = icmp eq i32 %18, -1
  br i1 %19, label %20, label %24

20:                                               ; preds = %17
  %21 = call ptr @__errno_location() #12
  %22 = load i32, ptr %21, align 4
  %23 = icmp eq i32 %22, 4
  br label %24

24:                                               ; preds = %20, %17
  %25 = phi i1 [ false, %17 ], [ %23, %20 ]
  br i1 %25, label %13, label %26

26:                                               ; preds = %24
  %27 = load i32, ptr %7, align 4
  %28 = icmp ne i32 %27, 0
  br i1 %28, label %29, label %33

29:                                               ; preds = %26
  %30 = call ptr @__errno_location() #12
  %31 = load i32, ptr %30, align 4
  %32 = sub nsw i32 0, %31
  store i32 %32, ptr %3, align 4
  store i32 1, ptr %8, align 4
  br label %34

33:                                               ; preds = %26
  store i32 0, ptr %3, align 4
  store i32 1, ptr %8, align 4
  br label %34

34:                                               ; preds = %33, %29
  call void @llvm.lifetime.end.p0(i64 4, ptr %7) #11
  call void @llvm.lifetime.end.p0(i64 4, ptr %6) #11
  %35 = load i32, ptr %3, align 4
  ret i32 %35
}