; Function Attrs: nounwind uwtable
define hidden range(i32 -2147483647, -2147483648) i32 @uv__cloexec(i32 noundef %0, i32 noundef %1) local_unnamed_addr #0 {
  %.not = icmp ne i32 %1, 0
  %spec.store.select = zext i1 %.not to i32
  br label %3

3:                                                ; preds = %5, %2
  %4 = tail call i32 (i32, i32, ...) @fcntl64(i32 noundef %0, i32 noundef 2, i32 noundef %spec.store.select) #23
  switch i32 %4, label %..critedge_crit_edge [
    i32 -1, label %5
    i32 0, label %.loopexit
  ]

..critedge_crit_edge:                             ; preds = %3
  %.pre = tail call ptr @__errno_location() #24
  br label %.critedge

5:                                                ; preds = %3
  %6 = tail call ptr @__errno_location() #24
  %7 = load i32, ptr %6, align 4
  %8 = icmp eq i32 %7, 4
  br i1 %8, label %3, label %.critedge

.critedge:                                        ; preds = %5, %..critedge_crit_edge
  %.pre-phi = phi ptr [ %.pre, %..critedge_crit_edge ], [ %6, %5 ]
  %9 = load i32, ptr %.pre-phi, align 4
  %10 = sub nsw i32 0, %9
  br label %.loopexit

.loopexit:                                        ; preds = %3, %.critedge
  %.0 = phi i32 [ %10, %.critedge ], [ %4, %3 ]
  ret i32 %.0
}